; ModuleID = '55/430.c'
source_filename = "55/430.c"
target datalayout = "e-m:e-p270:32:32-p271:32:32-p272:64:64-i64:64-f80:128-n8:16:32:64-S128"
target triple = "x86_64-pc-linux-gnu"

@.str = private unnamed_addr constant [7 x i8] c"%d%s%d\00", align 1
@.str.1 = private unnamed_addr constant [2 x i8] c"0\00", align 1
@.str.2 = private unnamed_addr constant [3 x i8] c"%s\00", align 1

; Function Attrs: noinline nounwind uwtable
define dso_local void @main() #0 {
  %1 = alloca i32, align 4
  %2 = alloca i32, align 4
  %3 = alloca i32, align 4
  %4 = alloca i32, align 4
  %5 = alloca i32, align 4
  %6 = alloca i32, align 4
  %7 = alloca i32, align 4
  %8 = alloca i32, align 4
  %9 = alloca [100 x i8], align 16
  %10 = alloca [100 x i8], align 16
  store i32 0, i32* %5, align 4
  store i32 0, i32* %7, align 4
  %11 = getelementptr inbounds [100 x i8], [100 x i8]* %9, i64 0, i64 0
  %12 = call i32 (i8*, ...) @__isoc99_scanf(i8* getelementptr inbounds ([7 x i8], [7 x i8]* @.str, i64 0, i64 0), i32* %1, i8* %11, i32* %2)
  %13 = getelementptr inbounds [100 x i8], [100 x i8]* %9, i64 0, i64 0
  %14 = call i64 @strlen(i8* %13) #3
  %15 = trunc i64 %14 to i32
  store i32 %15, i32* %3, align 4
  %16 = getelementptr inbounds [100 x i8], [100 x i8]* %9, i64 0, i64 0
  %17 = load i8, i8* %16, align 16
  %18 = sext i8 %17 to i32
  %19 = icmp eq i32 %18, 48
  br i1 %19, label %20, label %22

20:                                               ; preds = %0
  %21 = call i32 (i8*, ...) @printf(i8* getelementptr inbounds ([2 x i8], [2 x i8]* @.str.1, i64 0, i64 0))
  br label %22

22:                                               ; preds = %20, %0
  store i32 0, i32* %4, align 4
  br label %23

23:                                               ; preds = %85, %22
  %24 = load i32, i32* %4, align 4
  %25 = load i32, i32* %3, align 4
  %26 = icmp slt i32 %24, %25
  br i1 %26, label %27, label %88

27:                                               ; preds = %23
  %28 = load i32, i32* %4, align 4
  %29 = sext i32 %28 to i64
  %30 = getelementptr inbounds [100 x i8], [100 x i8]* %9, i64 0, i64 %29
  %31 = load i8, i8* %30, align 1
  %32 = sext i8 %31 to i32
  %33 = icmp sle i32 %32, 122
  br i1 %33, label %34, label %49

34:                                               ; preds = %27
  %35 = load i32, i32* %4, align 4
  %36 = sext i32 %35 to i64
  %37 = getelementptr inbounds [100 x i8], [100 x i8]* %9, i64 0, i64 %36
  %38 = load i8, i8* %37, align 1
  %39 = sext i8 %38 to i32
  %40 = icmp sge i32 %39, 97
  br i1 %40, label %41, label %49

41:                                               ; preds = %34
  %42 = load i32, i32* %4, align 4
  %43 = sext i32 %42 to i64
  %44 = getelementptr inbounds [100 x i8], [100 x i8]* %9, i64 0, i64 %43
  %45 = load i8, i8* %44, align 1
  %46 = sext i8 %45 to i32
  %47 = sub nsw i32 %46, 97
  %48 = add nsw i32 %47, 10
  store i32 %48, i32* %6, align 4
  br label %79

49:                                               ; preds = %34, %27
  %50 = load i32, i32* %4, align 4
  %51 = sext i32 %50 to i64
  %52 = getelementptr inbounds [100 x i8], [100 x i8]* %9, i64 0, i64 %51
  %53 = load i8, i8* %52, align 1
  %54 = sext i8 %53 to i32
  %55 = icmp sle i32 %54, 90
  br i1 %55, label %56, label %71

56:                                               ; preds = %49
  %57 = load i32, i32* %4, align 4
  %58 = sext i32 %57 to i64
  %59 = getelementptr inbounds [100 x i8], [100 x i8]* %9, i64 0, i64 %58
  %60 = load i8, i8* %59, align 1
  %61 = sext i8 %60 to i32
  %62 = icmp sge i32 %61, 65
  br i1 %62, label %63, label %71

63:                                               ; preds = %56
  %64 = load i32, i32* %4, align 4
  %65 = sext i32 %64 to i64
  %66 = getelementptr inbounds [100 x i8], [100 x i8]* %9, i64 0, i64 %65
  %67 = load i8, i8* %66, align 1
  %68 = sext i8 %67 to i32
  %69 = sub nsw i32 %68, 65
  %70 = add nsw i32 %69, 10
  store i32 %70, i32* %6, align 4
  br label %78

71:                                               ; preds = %56, %49
  %72 = load i32, i32* %4, align 4
  %73 = sext i32 %72 to i64
  %74 = getelementptr inbounds [100 x i8], [100 x i8]* %9, i64 0, i64 %73
  %75 = load i8, i8* %74, align 1
  %76 = sext i8 %75 to i32
  %77 = sub nsw i32 %76, 48
  store i32 %77, i32* %6, align 4
  br label %78

78:                                               ; preds = %71, %63
  br label %79

79:                                               ; preds = %78, %41
  %80 = load i32, i32* %7, align 4
  %81 = load i32, i32* %1, align 4
  %82 = mul nsw i32 %80, %81
  %83 = load i32, i32* %6, align 4
  %84 = add nsw i32 %82, %83
  store i32 %84, i32* %7, align 4
  br label %85

85:                                               ; preds = %79
  %86 = load i32, i32* %4, align 4
  %87 = add nsw i32 %86, 1
  store i32 %87, i32* %4, align 4
  br label %23

88:                                               ; preds = %23
  br label %89

89:                                               ; preds = %116, %88
  %90 = load i32, i32* %7, align 4
  %91 = icmp ne i32 %90, 0
  br i1 %91, label %92, label %119

92:                                               ; preds = %89
  %93 = load i32, i32* %7, align 4
  %94 = load i32, i32* %2, align 4
  %95 = srem i32 %93, %94
  store i32 %95, i32* %8, align 4
  %96 = load i32, i32* %7, align 4
  %97 = load i32, i32* %2, align 4
  %98 = sdiv i32 %96, %97
  store i32 %98, i32* %7, align 4
  %99 = load i32, i32* %8, align 4
  %100 = icmp sge i32 %99, 10
  br i1 %100, label %101, label %109

101:                                              ; preds = %92
  %102 = load i32, i32* %8, align 4
  %103 = sub nsw i32 %102, 10
  %104 = add nsw i32 %103, 65
  %105 = trunc i32 %104 to i8
  %106 = load i32, i32* %5, align 4
  %107 = sext i32 %106 to i64
  %108 = getelementptr inbounds [100 x i8], [100 x i8]* %10, i64 0, i64 %107
  store i8 %105, i8* %108, align 1
  br label %116

109:                                              ; preds = %92
  %110 = load i32, i32* %8, align 4
  %111 = add nsw i32 %110, 48
  %112 = trunc i32 %111 to i8
  %113 = load i32, i32* %5, align 4
  %114 = sext i32 %113 to i64
  %115 = getelementptr inbounds [100 x i8], [100 x i8]* %10, i64 0, i64 %114
  store i8 %112, i8* %115, align 1
  br label %116

116:                                              ; preds = %109, %101
  %117 = load i32, i32* %5, align 4
  %118 = add nsw i32 %117, 1
  store i32 %118, i32* %5, align 4
  br label %89

119:                                              ; preds = %89
  store i32 0, i32* %4, align 4
  br label %120

120:                                              ; preds = %135, %119
  %121 = load i32, i32* %4, align 4
  %122 = load i32, i32* %5, align 4
  %123 = icmp slt i32 %121, %122
  br i1 %123, label %124, label %138

124:                                              ; preds = %120
  %125 = load i32, i32* %5, align 4
  %126 = load i32, i32* %4, align 4
  %127 = sub nsw i32 %125, %126
  %128 = sub nsw i32 %127, 1
  %129 = sext i32 %128 to i64
  %130 = getelementptr inbounds [100 x i8], [100 x i8]* %10, i64 0, i64 %129
  %131 = load i8, i8* %130, align 1
  %132 = load i32, i32* %4, align 4
  %133 = sext i32 %132 to i64
  %134 = getelementptr inbounds [100 x i8], [100 x i8]* %9, i64 0, i64 %133
  store i8 %131, i8* %134, align 1
  br label %135

135:                                              ; preds = %124
  %136 = load i32, i32* %4, align 4
  %137 = add nsw i32 %136, 1
  store i32 %137, i32* %4, align 4
  br label %120

138:                                              ; preds = %120
  %139 = load i32, i32* %5, align 4
  %140 = sext i32 %139 to i64
  %141 = getelementptr inbounds [100 x i8], [100 x i8]* %9, i64 0, i64 %140
  store i8 0, i8* %141, align 1
  %142 = getelementptr inbounds [100 x i8], [100 x i8]* %9, i64 0, i64 0
  %143 = call i32 (i8*, ...) @printf(i8* getelementptr inbounds ([3 x i8], [3 x i8]* @.str.2, i64 0, i64 0), i8* %142)
  ret void
}

declare dso_local i32 @__isoc99_scanf(i8*, ...) #1

; Function Attrs: nounwind readonly
declare dso_local i64 @strlen(i8*) #2

declare dso_local i32 @printf(i8*, ...) #1


!llvm.module.flags = !{!0}
!llvm.ident = !{!1}

!0 = !{i32 1, !"wchar_size", i32 4}
!1 = !{!"clang version 10.0.0-4ubuntu1 "}
